target datalayout = "e-m:e-p270:32:32-p271:32:32-p272:64:64-i64:64-i128:128-f80:128-n8:16:32:64-S128"
target triple = "x86_64-pc-linux-gnu"

%"class.OpenImageIO::v3_1_0::bmp_pvt::BmpFileHeader" = type { i16, i32, i16, i16, i32 }

; Function Attrs: mustprogress nounwind uwtable
define hidden noundef zeroext i1 @_ZNK11OpenImageIO6v3_1_07bmp_pvt13BmpFileHeader5isBmpEv(ptr noundef nonnull align 4 dereferenceable(16) %0) #5 align 2 {
  %2 = alloca i1, align 1
  %3 = alloca ptr, align 8
  store ptr %0, ptr %3, align 8, !tbaa !3
  %4 = load ptr, ptr %3, align 8
  %5 = getelementptr inbounds nuw %"class.OpenImageIO::v3_1_0::bmp_pvt::BmpFileHeader", ptr %4, i32 0, i32 0
  %6 = load i16, ptr %5, align 4, !tbaa !18
  %7 = sext i16 %6 to i32
  switch i32 %7, label %9 [
    i32 19778, label %8
    i32 16706, label %8
    i32 18755, label %8
    i32 20547, label %8
    i32 21584, label %8
  ]

8:                                                ; preds = %1, %1, %1, %1, %1
  store i1 true, ptr %2, align 1
  br label %10

9:                                                ; preds = %1
  store i1 false, ptr %2, align 1
  br label %10

10:                                               ; preds = %9, %8
  %11 = load i1, ptr %2, align 1
  ret i1 %11
}