; Function Attrs: mustprogress nofree norecurse nosync nounwind willreturn memory(argmem: read) uwtable
define hidden noundef zeroext i1 @_ZNK11OpenImageIO6v3_1_07bmp_pvt13BmpFileHeader5isBmpEv(ptr noundef nonnull readonly align 4 captures(none) dereferenceable(16) %0) local_unnamed_addr #4 align 2 {
  %2 = load i16, ptr %0, align 4, !tbaa !6
  switch i16 %2, label %3 [
    i16 19778, label %4
    i16 16706, label %4
    i16 18755, label %4
    i16 20547, label %4
    i16 21584, label %4
  ]

3:                                                ; preds = %1
  br label %4

4:                                                ; preds = %1, %1, %1, %1, %1, %3
  %.0 = phi i1 [ false, %3 ], [ true, %1 ], [ true, %1 ], [ true, %1 ], [ true, %1 ], [ true, %1 ]
  ret i1 %.0
}